target datalayout = "e-m:e-p270:32:32-p271:32:32-p272:64:64-i64:64-i128:128-f80:128-n8:16:32:64-S128"
target triple = "x86_64-pc-linux-gnu"

%struct.cli_bc_ctx = type { i8, i16, i32, ptr, ptr, i32, i32, ptr, ptr, ptr, i32, i32, i64, ptr, ptr, ptr, %struct.cli_bc_hooks, %struct.cli_exe_info, [64 x i32], [64 x i32], i32, ptr, ptr, i32, i32, i32, i32, ptr, i32, ptr, ptr, i32, i32, i32, i32, i32, i32, ptr, ptr, ptr, ptr, ptr, ptr, ptr, i32, i32, i32, i32, ptr, ptr, ptr, ptr, ptr, i32, i32, i32, i32, ptr, ptr, ptr, ptr, i32, i32, i32, ptr, i32, ptr, i32, i32, ptr, i32 }
%struct.cli_bc_hooks = type { ptr, ptr, ptr, ptr, ptr }
%struct.cli_exe_info = type { ptr, i32, i32, i16, i32, i32, %struct.cli_hashset, i32, i32, i32, i32, i32, i32, i32, i32, i32, %struct.pe_image_file_hdr, %union.anon, [16 x %struct.pe_image_data_dir] }
%struct.cli_hashset = type { ptr, ptr, ptr, i32, i32, i32, i32 }
%struct.pe_image_file_hdr = type { i32, i16, i16, i32, i32, i32, i16, i16 }
%union.anon = type { %struct.pe_image_optional_hdr64 }
%struct.pe_image_optional_hdr64 = type { i16, i8, i8, i32, i32, i32, i32, i32, i64, i32, i32, i16, i16, i16, i16, i16, i16, i32, i32, i32, i32, i16, i16, i64, i64, i64, i64, i32, i32 }
%struct.pe_image_data_dir = type { i32, i32 }
%struct.bc_buffer = type { ptr, i32, i32, i32 }
%struct.bc_bzip2 = type { %struct.bz_stream, i32, i32 }
%struct.bz_stream = type { ptr, i32, i32, i32, ptr, i32, i32, i32, ptr, ptr, ptr, ptr }

@.str.64 = private unnamed_addr constant [44 x i8] c"bytecode api: bzip2_init: invalid buffers!\0A\00", align 1
@.str.65 = private unnamed_addr constant [68 x i8] c"bytecode api: BZ2_bzDecompressInit: Library has been mis-compiled!\0A\00", align 1
@.str.66 = private unnamed_addr constant [56 x i8] c"bytecode api: BZ2_bzDecompressInit: Invalid arguments!\0A\00", align 1
@.str.67 = private unnamed_addr constant [68 x i8] c"bytecode api: BZ2_bzDecompressInit: Insufficient memory available!\0A\00", align 1
@.str.68 = private unnamed_addr constant [54 x i8] c"bytecode api: BZ2_bzDecompressInit: unknown error %d\0A\00", align 1
@.str.135 = private unnamed_addr constant [36 x i8] c"bytecode api: invalid buffer id %u\0A\00", align 1

; Function Attrs: nounwind uwtable
define internal ptr @get_buffer(ptr noundef %0, i32 noundef %1) #0 {
  %3 = alloca ptr, align 8
  %4 = alloca ptr, align 8
  %5 = alloca i32, align 4
  store ptr %0, ptr %4, align 8
  store i32 %1, ptr %5, align 4
  %6 = load ptr, ptr %4, align 8
  %7 = getelementptr inbounds %struct.cli_bc_ctx, ptr %6, i32 0, i32 52
  %8 = load ptr, ptr %7, align 8
  %9 = icmp ne ptr %8, null
  br i1 %9, label %10, label %19

10:                                               ; preds = %2
  %11 = load i32, ptr %5, align 4
  %12 = icmp slt i32 %11, 0
  br i1 %12, label %19, label %13

13:                                               ; preds = %10
  %14 = load i32, ptr %5, align 4
  %15 = load ptr, ptr %4, align 8
  %16 = getelementptr inbounds %struct.cli_bc_ctx, ptr %15, i32 0, i32 53
  %17 = load i32, ptr %16, align 8
  %18 = icmp uge i32 %14, %17
  br i1 %18, label %19, label %21

19:                                               ; preds = %13, %10, %2
  %20 = load i32, ptr %5, align 4
  call void (ptr, ...) @cli_dbgmsg(ptr noundef @.str.135, i32 noundef %20)
  store ptr null, ptr %3, align 8
  br label %28

21:                                               ; preds = %13
  %22 = load ptr, ptr %4, align 8
  %23 = getelementptr inbounds %struct.cli_bc_ctx, ptr %22, i32 0, i32 52
  %24 = load ptr, ptr %23, align 8
  %25 = load i32, ptr %5, align 4
  %26 = sext i32 %25 to i64
  %27 = getelementptr inbounds %struct.bc_buffer, ptr %24, i64 %26
  store ptr %27, ptr %3, align 8
  br label %28

28:                                               ; preds = %21, %19
  %29 = load ptr, ptr %3, align 8
  ret ptr %29
}

; Function Attrs: nounwind uwtable
define i32 @cli_bcapi_bzip2_init(ptr noundef %0, i32 noundef %1, i32 noundef %2) #0 {
  %4 = alloca i32, align 4
  %5 = alloca ptr, align 8
  %6 = alloca i32, align 4
  %7 = alloca i32, align 4
  %8 = alloca i32, align 4
  %9 = alloca ptr, align 8
  %10 = alloca i32, align 4
  store ptr %0, ptr %5, align 8
  store i32 %1, ptr %6, align 4
  store i32 %2, ptr %7, align 4
  %11 = load ptr, ptr %5, align 8
  %12 = getelementptr inbounds %struct.cli_bc_ctx, ptr %11, i32 0, i32 36
  %13 = load i32, ptr %12, align 4
  %14 = add i32 %13, 1
  store i32 %14, ptr %10, align 4
  %15 = load ptr, ptr %5, align 8
  %16 = load i32, ptr %6, align 4
  %17 = call ptr @get_buffer(ptr noundef %15, i32 noundef %16)
  %18 = icmp ne ptr %17, null
  br i1 %18, label %19, label %24

19:                                               ; preds = %3
  %20 = load ptr, ptr %5, align 8
  %21 = load i32, ptr %7, align 4
  %22 = call ptr @get_buffer(ptr noundef %20, i32 noundef %21)
  %23 = icmp ne ptr %22, null
  br i1 %23, label %25, label %24

24:                                               ; preds = %19, %3
  call void (ptr, ...) @cli_dbgmsg(ptr noundef @.str.64)
  store i32 -1, ptr %4, align 4
  br label %69

25:                                               ; preds = %19
  %26 = load ptr, ptr %5, align 8
  %27 = getelementptr inbounds %struct.cli_bc_ctx, ptr %26, i32 0, i32 51
  %28 = load ptr, ptr %27, align 8
  %29 = load i32, ptr %10, align 4
  %30 = zext i32 %29 to i64
  %31 = mul i64 88, %30
  %32 = call ptr @cli_max_realloc(ptr noundef %28, i64 noundef %31)
  store ptr %32, ptr %9, align 8
  %33 = load ptr, ptr %9, align 8
  %34 = icmp ne ptr %33, null
  br i1 %34, label %36, label %35

35:                                               ; preds = %25
  store i32 -1, ptr %4, align 4
  br label %69

36:                                               ; preds = %25
  %37 = load ptr, ptr %9, align 8
  %38 = load ptr, ptr %5, align 8
  %39 = getelementptr inbounds %struct.cli_bc_ctx, ptr %38, i32 0, i32 51
  store ptr %37, ptr %39, align 8
  %40 = load i32, ptr %10, align 4
  %41 = load ptr, ptr %5, align 8
  %42 = getelementptr inbounds %struct.cli_bc_ctx, ptr %41, i32 0, i32 36
  store i32 %40, ptr %42, align 4
  %43 = load ptr, ptr %9, align 8
  %44 = load i32, ptr %10, align 4
  %45 = sub i32 %44, 1
  %46 = zext i32 %45 to i64
  %47 = getelementptr inbounds %struct.bc_bzip2, ptr %43, i64 %46
  store ptr %47, ptr %9, align 8
  %48 = load i32, ptr %6, align 4
  %49 = load ptr, ptr %9, align 8
  %50 = getelementptr inbounds %struct.bc_bzip2, ptr %49, i32 0, i32 1
  store i32 %48, ptr %50, align 8
  %51 = load i32, ptr %7, align 4
  %52 = load ptr, ptr %9, align 8
  %53 = getelementptr inbounds %struct.bc_bzip2, ptr %52, i32 0, i32 2
  store i32 %51, ptr %53, align 4
  %54 = load ptr, ptr %9, align 8
  %55 = getelementptr inbounds %struct.bc_bzip2, ptr %54, i32 0, i32 0
  call void @llvm.memset.p0.i64(ptr align 8 %55, i8 0, i64 80, i1 false)
  %56 = load ptr, ptr %9, align 8
  %57 = getelementptr inbounds %struct.bc_bzip2, ptr %56, i32 0, i32 0
  %58 = call i32 @BZ2_bzDecompressInit(ptr noundef %57, i32 noundef 0, i32 noundef 0)
  store i32 %58, ptr %8, align 4
  %59 = load i32, ptr %8, align 4
  switch i32 %59, label %64 [
    i32 -9, label %60
    i32 -2, label %61
    i32 -3, label %62
    i32 0, label %63
  ]

60:                                               ; preds = %36
  call void (ptr, ...) @cli_dbgmsg(ptr noundef @.str.65)
  store i32 -1, ptr %4, align 4
  br label %69

61:                                               ; preds = %36
  call void (ptr, ...) @cli_dbgmsg(ptr noundef @.str.66)
  store i32 -1, ptr %4, align 4
  br label %69

62:                                               ; preds = %36
  call void (ptr, ...) @cli_dbgmsg(ptr noundef @.str.67)
  store i32 -1, ptr %4, align 4
  br label %69

63:                                               ; preds = %36
  br label %66

64:                                               ; preds = %36
  %65 = load i32, ptr %8, align 4
  call void (ptr, ...) @cli_dbgmsg(ptr noundef @.str.68, i32 noundef %65)
  store i32 -1, ptr %4, align 4
  br label %69

66:                                               ; preds = %63
  %67 = load i32, ptr %10, align 4
  %68 = sub i32 %67, 1
  store i32 %68, ptr %4, align 4
  br label %69

69:                                               ; preds = %66, %64, %62, %61, %60, %35, %24
  %70 = load i32, ptr %4, align 4
  ret i32 %70
}