; Function Attrs: nounwind uwtable
define i32 @cli_bcapi_bzip2_init(ptr nocapture noundef %0, i32 noundef %1, i32 noundef %2) local_unnamed_addr #1 {
  %4 = getelementptr inbounds i8, ptr %0, i64 1116
  %5 = load i32, ptr %4, align 4
  %6 = add i32 %5, 1
  %7 = getelementptr inbounds i8, ptr %0, i64 1224
  %8 = load ptr, ptr %7, align 8
  %9 = icmp eq ptr %8, null
  %10 = icmp slt i32 %1, 0
  %or.cond.i = or i1 %10, %9
  br i1 %or.cond.i, label %get_buffer.exit.thread, label %11

11:                                               ; preds = %3
  %12 = getelementptr inbounds i8, ptr %0, i64 1232
  %13 = load i32, ptr %12, align 8
  %.not.i = icmp ugt i32 %13, %1
  br i1 %.not.i, label %get_buffer.exit, label %get_buffer.exit.thread

get_buffer.exit:                                  ; preds = %11
  %14 = icmp sgt i32 %2, -1
  %.not.i27 = icmp ugt i32 %13, %2
  %or.cond = and i1 %14, %.not.i27
  br i1 %or.cond, label %get_buffer.exit29, label %get_buffer.exit.thread

get_buffer.exit.thread:                           ; preds = %get_buffer.exit, %11, %3
  %.sink = phi i32 [ %1, %3 ], [ %1, %11 ], [ %2, %get_buffer.exit ]
  tail call void (ptr, ...) @cli_dbgmsg(ptr noundef nonnull @.str.135, i32 noundef %.sink) #29
  tail call void (ptr, ...) @cli_dbgmsg(ptr noundef nonnull @.str.64) #29
  br label %30

get_buffer.exit29:                                ; preds = %get_buffer.exit
  %15 = getelementptr inbounds i8, ptr %0, i64 1216
  %16 = load ptr, ptr %15, align 8
  %17 = zext i32 %6 to i64
  %18 = mul nuw nsw i64 %17, 88
  %19 = tail call ptr @cli_max_realloc(ptr noundef %16, i64 noundef %18) #29
  %.not25 = icmp eq ptr %19, null
  br i1 %.not25, label %30, label %20

20:                                               ; preds = %get_buffer.exit29
  store ptr %19, ptr %15, align 8
  store i32 %6, ptr %4, align 4
  %21 = zext i32 %5 to i64
  %22 = getelementptr inbounds %struct.bc_bzip2, ptr %19, i64 %21
  %23 = getelementptr inbounds i8, ptr %22, i64 80
  store i32 %1, ptr %23, align 8
  %24 = getelementptr inbounds i8, ptr %22, i64 84
  store i32 %2, ptr %24, align 4
  tail call void @llvm.memset.p0.i64(ptr noundef nonnull align 8 dereferenceable(80) %22, i8 0, i64 80, i1 false)
  %25 = tail call i32 @BZ2_bzDecompressInit(ptr noundef nonnull %22, i32 noundef 0, i32 noundef 0) #29
  switch i32 %25, label %29 [
    i32 -9, label %26
    i32 -2, label %27
    i32 -3, label %28
    i32 0, label %30
  ]

26:                                               ; preds = %20
  tail call void (ptr, ...) @cli_dbgmsg(ptr noundef nonnull @.str.65) #29
  br label %30

27:                                               ; preds = %20
  tail call void (ptr, ...) @cli_dbgmsg(ptr noundef nonnull @.str.66) #29
  br label %30

28:                                               ; preds = %20
  tail call void (ptr, ...) @cli_dbgmsg(ptr noundef nonnull @.str.67) #29
  br label %30

29:                                               ; preds = %20
  tail call void (ptr, ...) @cli_dbgmsg(ptr noundef nonnull @.str.68, i32 noundef %25) #29
  br label %30

30:                                               ; preds = %20, %get_buffer.exit29, %29, %28, %27, %26, %get_buffer.exit.thread
  %.0 = phi i32 [ -1, %29 ], [ -1, %28 ], [ -1, %27 ], [ -1, %26 ], [ -1, %get_buffer.exit.thread ], [ -1, %get_buffer.exit29 ], [ %5, %20 ]
  ret i32 %.0
}